target datalayout = "e-m:e-p270:32:32-p271:32:32-p272:64:64-i64:64-i128:128-f80:128-n8:16:32:64-S128"
target triple = "x86_64-pc-linux-gnu"

; Function Attrs: mustprogress nounwind uwtable
define noundef i64 @_ZN6duckdb20utf8proc_encode_charEiPh(i32 noundef %0, ptr noundef %1) #0 {
  %3 = alloca i64, align 8
  %4 = alloca i32, align 4
  %5 = alloca ptr, align 8
  store i32 %0, ptr %4, align 4, !tbaa !12
  store ptr %1, ptr %5, align 8, !tbaa !7
  %6 = load i32, ptr %4, align 4, !tbaa !12
  %7 = icmp slt i32 %6, 0
  br i1 %7, label %8, label %9

8:                                                ; preds = %2
  store i64 0, ptr %3, align 8
  br label %87

9:                                                ; preds = %2
  %10 = load i32, ptr %4, align 4, !tbaa !12
  %11 = icmp slt i32 %10, 128
  br i1 %11, label %12, label %17

12:                                               ; preds = %9
  %13 = load i32, ptr %4, align 4, !tbaa !12
  %14 = trunc i32 %13 to i8
  %15 = load ptr, ptr %5, align 8, !tbaa !7
  %16 = getelementptr inbounds i8, ptr %15, i64 0
  store i8 %14, ptr %16, align 1, !tbaa !14
  store i64 1, ptr %3, align 8
  br label %87

17:                                               ; preds = %9
  %18 = load i32, ptr %4, align 4, !tbaa !12
  %19 = icmp slt i32 %18, 2048
  br i1 %19, label %20, label %33

20:                                               ; preds = %17
  %21 = load i32, ptr %4, align 4, !tbaa !12
  %22 = ashr i32 %21, 6
  %23 = add nsw i32 192, %22
  %24 = trunc i32 %23 to i8
  %25 = load ptr, ptr %5, align 8, !tbaa !7
  %26 = getelementptr inbounds i8, ptr %25, i64 0
  store i8 %24, ptr %26, align 1, !tbaa !14
  %27 = load i32, ptr %4, align 4, !tbaa !12
  %28 = and i32 %27, 63
  %29 = add nsw i32 128, %28
  %30 = trunc i32 %29 to i8
  %31 = load ptr, ptr %5, align 8, !tbaa !7
  %32 = getelementptr inbounds i8, ptr %31, i64 1
  store i8 %30, ptr %32, align 1, !tbaa !14
  store i64 2, ptr %3, align 8
  br label %87

33:                                               ; preds = %17
  %34 = load i32, ptr %4, align 4, !tbaa !12
  %35 = icmp slt i32 %34, 65536
  br i1 %35, label %36, label %56

36:                                               ; preds = %33
  %37 = load i32, ptr %4, align 4, !tbaa !12
  %38 = ashr i32 %37, 12
  %39 = add nsw i32 224, %38
  %40 = trunc i32 %39 to i8
  %41 = load ptr, ptr %5, align 8, !tbaa !7
  %42 = getelementptr inbounds i8, ptr %41, i64 0
  store i8 %40, ptr %42, align 1, !tbaa !14
  %43 = load i32, ptr %4, align 4, !tbaa !12
  %44 = ashr i32 %43, 6
  %45 = and i32 %44, 63
  %46 = add nsw i32 128, %45
  %47 = trunc i32 %46 to i8
  %48 = load ptr, ptr %5, align 8, !tbaa !7
  %49 = getelementptr inbounds i8, ptr %48, i64 1
  store i8 %47, ptr %49, align 1, !tbaa !14
  %50 = load i32, ptr %4, align 4, !tbaa !12
  %51 = and i32 %50, 63
  %52 = add nsw i32 128, %51
  %53 = trunc i32 %52 to i8
  %54 = load ptr, ptr %5, align 8, !tbaa !7
  %55 = getelementptr inbounds i8, ptr %54, i64 2
  store i8 %53, ptr %55, align 1, !tbaa !14
  store i64 3, ptr %3, align 8
  br label %87

56:                                               ; preds = %33
  %57 = load i32, ptr %4, align 4, !tbaa !12
  %58 = icmp slt i32 %57, 1114112
  br i1 %58, label %59, label %86

59:                                               ; preds = %56
  %60 = load i32, ptr %4, align 4, !tbaa !12
  %61 = ashr i32 %60, 18
  %62 = add nsw i32 240, %61
  %63 = trunc i32 %62 to i8
  %64 = load ptr, ptr %5, align 8, !tbaa !7
  %65 = getelementptr inbounds i8, ptr %64, i64 0
  store i8 %63, ptr %65, align 1, !tbaa !14
  %66 = load i32, ptr %4, align 4, !tbaa !12
  %67 = ashr i32 %66, 12
  %68 = and i32 %67, 63
  %69 = add nsw i32 128, %68
  %70 = trunc i32 %69 to i8
  %71 = load ptr, ptr %5, align 8, !tbaa !7
  %72 = getelementptr inbounds i8, ptr %71, i64 1
  store i8 %70, ptr %72, align 1, !tbaa !14
  %73 = load i32, ptr %4, align 4, !tbaa !12
  %74 = ashr i32 %73, 6
  %75 = and i32 %74, 63
  %76 = add nsw i32 128, %75
  %77 = trunc i32 %76 to i8
  %78 = load ptr, ptr %5, align 8, !tbaa !7
  %79 = getelementptr inbounds i8, ptr %78, i64 2
  store i8 %77, ptr %79, align 1, !tbaa !14
  %80 = load i32, ptr %4, align 4, !tbaa !12
  %81 = and i32 %80, 63
  %82 = add nsw i32 128, %81
  %83 = trunc i32 %82 to i8
  %84 = load ptr, ptr %5, align 8, !tbaa !7
  %85 = getelementptr inbounds i8, ptr %84, i64 3
  store i8 %83, ptr %85, align 1, !tbaa !14
  store i64 4, ptr %3, align 8
  br label %87

86:                                               ; preds = %56
  store i64 0, ptr %3, align 8
  br label %87

87:                                               ; preds = %86, %59, %36, %20, %12, %8
  %88 = load i64, ptr %3, align 8
  ret i64 %88
}