; Function Attrs: mustprogress nofree norecurse nosync nounwind willreturn memory(argmem: write) uwtable
define noundef range(i64 0, 5) i64 @_ZN6duckdb20utf8proc_encode_charEiPh(i32 noundef %0, ptr noundef writeonly captures(none) %1) local_unnamed_addr #3 {
  %3 = icmp slt i32 %0, 0
  br i1 %3, label %53, label %4

4:                                                ; preds = %2
  %5 = icmp samesign ult i32 %0, 128
  br i1 %5, label %6, label %8

6:                                                ; preds = %4
  %7 = trunc nuw nsw i32 %0 to i8
  store i8 %7, ptr %1, align 1, !tbaa !7
  br label %53

8:                                                ; preds = %4
  %9 = icmp samesign ult i32 %0, 2048
  br i1 %9, label %10, label %18

10:                                               ; preds = %8
  %11 = lshr i32 %0, 6
  %12 = trunc nuw i32 %11 to i8
  %13 = or disjoint i8 %12, -64
  store i8 %13, ptr %1, align 1, !tbaa !7
  %14 = trunc i32 %0 to i8
  %15 = and i8 %14, 63
  %16 = or disjoint i8 %15, -128
  %17 = getelementptr inbounds nuw i8, ptr %1, i64 1
  store i8 %16, ptr %17, align 1, !tbaa !7
  br label %53

18:                                               ; preds = %8
  %19 = icmp samesign ult i32 %0, 65536
  br i1 %19, label %20, label %33

20:                                               ; preds = %18
  %21 = lshr i32 %0, 12
  %22 = trunc nuw i32 %21 to i8
  %23 = or disjoint i8 %22, -32
  store i8 %23, ptr %1, align 1, !tbaa !7
  %24 = lshr i32 %0, 6
  %25 = trunc i32 %24 to i8
  %26 = and i8 %25, 63
  %27 = or disjoint i8 %26, -128
  %28 = getelementptr inbounds nuw i8, ptr %1, i64 1
  store i8 %27, ptr %28, align 1, !tbaa !7
  %29 = trunc i32 %0 to i8
  %30 = and i8 %29, 63
  %31 = or disjoint i8 %30, -128
  %32 = getelementptr inbounds nuw i8, ptr %1, i64 2
  store i8 %31, ptr %32, align 1, !tbaa !7
  br label %53

33:                                               ; preds = %18
  %34 = icmp samesign ult i32 %0, 1114112
  br i1 %34, label %35, label %53

35:                                               ; preds = %33
  %36 = lshr i32 %0, 18
  %37 = trunc nuw i32 %36 to i8
  %38 = or disjoint i8 %37, -16
  store i8 %38, ptr %1, align 1, !tbaa !7
  %39 = lshr i32 %0, 12
  %40 = trunc i32 %39 to i8
  %41 = and i8 %40, 63
  %42 = or disjoint i8 %41, -128
  %43 = getelementptr inbounds nuw i8, ptr %1, i64 1
  store i8 %42, ptr %43, align 1, !tbaa !7
  %44 = lshr i32 %0, 6
  %45 = trunc i32 %44 to i8
  %46 = and i8 %45, 63
  %47 = or disjoint i8 %46, -128
  %48 = getelementptr inbounds nuw i8, ptr %1, i64 2
  store i8 %47, ptr %48, align 1, !tbaa !7
  %49 = trunc i32 %0 to i8
  %50 = and i8 %49, 63
  %51 = or disjoint i8 %50, -128
  %52 = getelementptr inbounds nuw i8, ptr %1, i64 3
  store i8 %51, ptr %52, align 1, !tbaa !7
  br label %53

53:                                               ; preds = %33, %2, %35, %20, %10, %6
  %.0 = phi i64 [ 1, %6 ], [ 2, %10 ], [ 3, %20 ], [ 4, %35 ], [ 0, %2 ], [ 0, %33 ]
  ret i64 %.0
}